; Function Attrs: mustprogress nounwind uwtable
define internal void @_ZN12_GLOBAL__N_112gzip_ostream14gzip_streambufD0Ev(ptr noundef nonnull align 8 dereferenceable(112) initializes((0, 8)) %0) unnamed_addr #3 align 2 personality ptr @__gxx_personality_v0 {
  store ptr getelementptr inbounds nuw inrange(-16, 112) (i8, ptr @_ZTVN12_GLOBAL__N_112gzip_ostream14gzip_streambufE, i64 16), ptr %0, align 8, !tbaa !28
  %2 = invoke noundef i32 @_ZN12_GLOBAL__N_112gzip_ostream14gzip_streambuf4syncEv(ptr noundef nonnull align 8 dereferenceable(112) %0)
          to label %3 unwind label %17

3:                                                ; preds = %1
  %4 = getelementptr inbounds nuw i8, ptr %0, i64 104
  %5 = load ptr, ptr %4, align 8, !tbaa !204
  %6 = invoke i32 @gzclose(ptr noundef %5)
          to label %7 unwind label %17

7:                                                ; preds = %3
  store ptr getelementptr inbounds nuw inrange(-16, 112) (i8, ptr @_ZTVNSt7__cxx1115basic_stringbufIcSt11char_traitsIcESaIcEEE, i64 16), ptr %0, align 8, !tbaa !28
  %8 = getelementptr inbounds nuw i8, ptr %0, i64 72
  %9 = load ptr, ptr %8, align 8, !tbaa !19
  %10 = getelementptr inbounds nuw i8, ptr %0, i64 88
  %11 = icmp eq ptr %9, %10
  br i1 %11, label %_ZNKSt7__cxx1112basic_stringIcSt11char_traitsIcESaIcEE11_M_is_localEv.exit.thread.i.i.i.i, label %_ZNKSt7__cxx1112basic_stringIcSt11char_traitsIcESaIcEE11_M_is_localEv.exit.i.i.i.i

_ZNKSt7__cxx1112basic_stringIcSt11char_traitsIcESaIcEE11_M_is_localEv.exit.thread.i.i.i.i: ; preds = %7
  %12 = getelementptr inbounds nuw i8, ptr %0, i64 80
  %13 = load i64, ptr %12, align 8, !tbaa !23
  %14 = icmp ult i64 %13, 16
  tail call void @llvm.assume(i1 %14)
  br label %_ZN12_GLOBAL__N_112gzip_ostream14gzip_streambufD2Ev.exit

_ZNKSt7__cxx1112basic_stringIcSt11char_traitsIcESaIcEE11_M_is_localEv.exit.i.i.i.i: ; preds = %7
  %15 = load i64, ptr %10, align 8, !tbaa !24
  %16 = add i64 %15, 1
  tail call void @_ZdlPvm(ptr noundef %9, i64 noundef %16) #38
  br label %_ZN12_GLOBAL__N_112gzip_ostream14gzip_streambufD2Ev.exit

17:                                               ; preds = %3, %1
  %18 = landingpad { ptr, i32 }
          catch ptr null
  %19 = extractvalue { ptr, i32 } %18, 0
  tail call void @__clang_call_terminate(ptr %19) #37
  unreachable

_ZN12_GLOBAL__N_112gzip_ostream14gzip_streambufD2Ev.exit: ; preds = %_ZNKSt7__cxx1112basic_stringIcSt11char_traitsIcESaIcEE11_M_is_localEv.exit.thread.i.i.i.i, %_ZNKSt7__cxx1112basic_stringIcSt11char_traitsIcESaIcEE11_M_is_localEv.exit.i.i.i.i
  store ptr getelementptr inbounds nuw inrange(-16, 112) (i8, ptr @_ZTVSt15basic_streambufIcSt11char_traitsIcEE, i64 16), ptr %0, align 8, !tbaa !28
  %20 = getelementptr inbounds nuw i8, ptr %0, i64 56
  tail call void @_ZNSt6localeD1Ev(ptr noundef nonnull align 8 dereferenceable(8) %20) #39
  tail call void @_ZdlPvm(ptr noundef nonnull %0, i64 noundef 112) #38
  ret void
}